; ModuleID = '26/1122.c'
source_filename = "26/1122.c"
target datalayout = "e-m:e-p270:32:32-p271:32:32-p272:64:64-i64:64-f80:128-n8:16:32:64-S128"
target triple = "x86_64-pc-linux-gnu"

@.str = private unnamed_addr constant [3 x i8] c"%s\00", align 1

; Function Attrs: noinline nounwind uwtable
define dso_local i32 @main() #0 {
  %1 = alloca i32, align 4
  %2 = alloca [256 x i8], align 16
  %3 = alloca [256 x i8], align 16
  %4 = alloca i32, align 4
  %5 = alloca i32, align 4
  %6 = alloca i32, align 4
  %7 = alloca i32, align 4
  %8 = alloca i32, align 4
  store i32 0, i32* %1, align 4
  store i32 0, i32* %7, align 4
  store i32 0, i32* %8, align 4
  %9 = getelementptr inbounds [256 x i8], [256 x i8]* %2, i64 0, i64 0
  %10 = call i32 (i8*, ...) bitcast (i32 (...)* @gets to i32 (i8*, ...)*)(i8* %9)
  %11 = getelementptr inbounds [256 x i8], [256 x i8]* %2, i64 0, i64 0
  %12 = call i64 @strlen(i8* %11) #3
  %13 = trunc i64 %12 to i32
  store i32 %13, i32* %5, align 4
  store i32 0, i32* %6, align 4
  br label %14

14:                                               ; preds = %57, %0
  %15 = load i32, i32* %6, align 4
  %16 = load i32, i32* %5, align 4
  %17 = icmp slt i32 %15, %16
  br i1 %17, label %18, label %60

18:                                               ; preds = %14
  %19 = load i32, i32* %6, align 4
  %20 = sext i32 %19 to i64
  %21 = getelementptr inbounds [256 x i8], [256 x i8]* %2, i64 0, i64 %20
  %22 = load i8, i8* %21, align 1
  %23 = sext i8 %22 to i32
  %24 = icmp ne i32 %23, 32
  br i1 %24, label %25, label %35

25:                                               ; preds = %18
  store i32 0, i32* %8, align 4
  %26 = load i32, i32* %6, align 4
  %27 = sext i32 %26 to i64
  %28 = getelementptr inbounds [256 x i8], [256 x i8]* %2, i64 0, i64 %27
  %29 = load i8, i8* %28, align 1
  %30 = load i32, i32* %7, align 4
  %31 = sext i32 %30 to i64
  %32 = getelementptr inbounds [256 x i8], [256 x i8]* %3, i64 0, i64 %31
  store i8 %29, i8* %32, align 1
  %33 = load i32, i32* %7, align 4
  %34 = add nsw i32 %33, 1
  store i32 %34, i32* %7, align 4
  br label %56

35:                                               ; preds = %18
  %36 = load i32, i32* %6, align 4
  %37 = sext i32 %36 to i64
  %38 = getelementptr inbounds [256 x i8], [256 x i8]* %2, i64 0, i64 %37
  %39 = load i8, i8* %38, align 1
  %40 = sext i8 %39 to i32
  %41 = icmp eq i32 %40, 32
  br i1 %41, label %42, label %55

42:                                               ; preds = %35
  %43 = load i32, i32* %8, align 4
  %44 = icmp eq i32 %43, 0
  br i1 %44, label %45, label %55

45:                                               ; preds = %42
  store i32 1, i32* %8, align 4
  %46 = load i32, i32* %6, align 4
  %47 = sext i32 %46 to i64
  %48 = getelementptr inbounds [256 x i8], [256 x i8]* %2, i64 0, i64 %47
  %49 = load i8, i8* %48, align 1
  %50 = load i32, i32* %7, align 4
  %51 = sext i32 %50 to i64
  %52 = getelementptr inbounds [256 x i8], [256 x i8]* %3, i64 0, i64 %51
  store i8 %49, i8* %52, align 1
  %53 = load i32, i32* %7, align 4
  %54 = add nsw i32 %53, 1
  store i32 %54, i32* %7, align 4
  br label %55

55:                                               ; preds = %45, %42, %35
  br label %56

56:                                               ; preds = %55, %25
  br label %57

57:                                               ; preds = %56
  %58 = load i32, i32* %6, align 4
  %59 = add nsw i32 %58, 1
  store i32 %59, i32* %6, align 4
  br label %14

60:                                               ; preds = %14
  %61 = getelementptr inbounds [256 x i8], [256 x i8]* %3, i64 0, i64 0
  %62 = call i32 (i8*, ...) @printf(i8* getelementptr inbounds ([3 x i8], [3 x i8]* @.str, i64 0, i64 0), i8* %61)
  %63 = load i32, i32* %1, align 4
  ret i32 %63
}

declare dso_local i32 @gets(...) #1

; Function Attrs: nounwind readonly
declare dso_local i64 @strlen(i8*) #2

declare dso_local i32 @printf(i8*, ...) #1


!llvm.module.flags = !{!0}
!llvm.ident = !{!1}

!0 = !{i32 1, !"wchar_size", i32 4}
!1 = !{!"clang version 10.0.0-4ubuntu1 "}
